; ModuleID = '31/1384.c'
source_filename = "31/1384.c"
target datalayout = "e-m:e-p270:32:32-p271:32:32-p272:64:64-i64:64-f80:128-n8:16:32:64-S128"
target triple = "x86_64-pc-linux-gnu"

%struct.stu = type { [50 x i8], %struct.stu* }

@.str = private unnamed_addr constant [4 x i8] c"end\00", align 1

; Function Attrs: noinline nounwind uwtable
define dso_local void @main() #0 {
  %1 = alloca %struct.stu*, align 8
  %2 = alloca %struct.stu*, align 8
  %3 = alloca %struct.stu*, align 8
  %4 = call noalias i8* @malloc(i64 64) #4
  %5 = bitcast i8* %4 to %struct.stu*
  store %struct.stu* %5, %struct.stu** %1, align 8
  %6 = load %struct.stu*, %struct.stu** %1, align 8
  %7 = getelementptr inbounds %struct.stu, %struct.stu* %6, i32 0, i32 1
  store %struct.stu* null, %struct.stu** %7, align 8
  %8 = load %struct.stu*, %struct.stu** %1, align 8
  %9 = getelementptr inbounds %struct.stu, %struct.stu* %8, i32 0, i32 0
  %10 = getelementptr inbounds [50 x i8], [50 x i8]* %9, i64 0, i64 0
  %11 = call i32 (i8*, ...) bitcast (i32 (...)* @gets to i32 (i8*, ...)*)(i8* %10)
  br label %12

12:                                               ; preds = %18, %0
  %13 = load %struct.stu*, %struct.stu** %1, align 8
  %14 = getelementptr inbounds %struct.stu, %struct.stu* %13, i32 0, i32 0
  %15 = getelementptr inbounds [50 x i8], [50 x i8]* %14, i64 0, i64 0
  %16 = call i32 @strcmp(i8* %15, i8* getelementptr inbounds ([4 x i8], [4 x i8]* @.str, i64 0, i64 0)) #5
  %17 = icmp ne i32 %16, 0
  br i1 %17, label %18, label %29

18:                                               ; preds = %12
  %19 = call noalias i8* @malloc(i64 64) #4
  %20 = bitcast i8* %19 to %struct.stu*
  store %struct.stu* %20, %struct.stu** %2, align 8
  %21 = load %struct.stu*, %struct.stu** %1, align 8
  %22 = load %struct.stu*, %struct.stu** %2, align 8
  %23 = getelementptr inbounds %struct.stu, %struct.stu* %22, i32 0, i32 1
  store %struct.stu* %21, %struct.stu** %23, align 8
  %24 = load %struct.stu*, %struct.stu** %2, align 8
  store %struct.stu* %24, %struct.stu** %1, align 8
  %25 = load %struct.stu*, %struct.stu** %1, align 8
  %26 = getelementptr inbounds %struct.stu, %struct.stu* %25, i32 0, i32 0
  %27 = getelementptr inbounds [50 x i8], [50 x i8]* %26, i64 0, i64 0
  %28 = call i32 (i8*, ...) bitcast (i32 (...)* @gets to i32 (i8*, ...)*)(i8* %27)
  br label %12

29:                                               ; preds = %12
  %30 = load %struct.stu*, %struct.stu** %1, align 8
  %31 = getelementptr inbounds %struct.stu, %struct.stu* %30, i32 0, i32 1
  %32 = load %struct.stu*, %struct.stu** %31, align 8
  store %struct.stu* %32, %struct.stu** %3, align 8
  %33 = load %struct.stu*, %struct.stu** %3, align 8
  store %struct.stu* %33, %struct.stu** %1, align 8
  br label %34

34:                                               ; preds = %42, %29
  %35 = load %struct.stu*, %struct.stu** %1, align 8
  %36 = icmp ne %struct.stu* %35, null
  br i1 %36, label %37, label %46

37:                                               ; preds = %34
  %38 = load %struct.stu*, %struct.stu** %1, align 8
  %39 = getelementptr inbounds %struct.stu, %struct.stu* %38, i32 0, i32 0
  %40 = getelementptr inbounds [50 x i8], [50 x i8]* %39, i64 0, i64 0
  %41 = call i32 @puts(i8* %40)
  br label %42

42:                                               ; preds = %37
  %43 = load %struct.stu*, %struct.stu** %1, align 8
  %44 = getelementptr inbounds %struct.stu, %struct.stu* %43, i32 0, i32 1
  %45 = load %struct.stu*, %struct.stu** %44, align 8
  store %struct.stu* %45, %struct.stu** %1, align 8
  br label %34

46:                                               ; preds = %34
  ret void
}

; Function Attrs: nounwind
declare dso_local noalias i8* @malloc(i64) #1

declare dso_local i32 @gets(...) #2

; Function Attrs: nounwind readonly
declare dso_local i32 @strcmp(i8*, i8*) #3

declare dso_local i32 @puts(i8*) #2


!llvm.module.flags = !{!0}
!llvm.ident = !{!1}

!0 = !{i32 1, !"wchar_size", i32 4}
!1 = !{!"clang version 10.0.0-4ubuntu1 "}
