; ModuleID = 'source-C-CXX/30/1384.c'
source_filename = "source-C-CXX/30/1384.c"
target datalayout = "e-m:e-p270:32:32-p271:32:32-p272:64:64-i64:64-f80:128-n8:16:32:64-S128"
target triple = "x86_64-pc-linux-gnu"

%struct.stu = type { [50 x i8], %struct.stu* }

@.str = private unnamed_addr constant [4 x i8] c"end\00", align 1

; Function Attrs: nounwind sspstrong uwtable
define dso_local void @main() local_unnamed_addr #0 {
  %1 = tail call noalias align 16 dereferenceable_or_null(64) i8* @malloc(i64 64) #5
  %2 = bitcast i8* %1 to %struct.stu*
  %3 = getelementptr inbounds %struct.stu, %struct.stu* %2, i64 0, i32 1
  store %struct.stu* null, %struct.stu** %3, align 8, !tbaa !5
  %4 = getelementptr inbounds %struct.stu, %struct.stu* %2, i64 0, i32 0, i64 0
  %5 = tail call i32 (i8*, ...) bitcast (i32 (...)* @gets to i32 (i8*, ...)*)(i8* %4) #5
  %6 = tail call i32 @strcmp(i8* noundef nonnull dereferenceable(1) %4, i8* noundef nonnull dereferenceable(4) getelementptr inbounds ([4 x i8], [4 x i8]* @.str, i64 0, i64 0)) #6
  %7 = icmp eq i32 %6, 0
  br i1 %7, label %10, label %15

8:                                                ; preds = %15
  %9 = bitcast i8* %17 to %struct.stu*
  br label %10

10:                                               ; preds = %8, %0
  %11 = phi %struct.stu* [ %2, %0 ], [ %9, %8 ]
  %12 = getelementptr inbounds %struct.stu, %struct.stu* %11, i64 0, i32 1
  %13 = load %struct.stu*, %struct.stu** %12, align 8, !tbaa !5
  %14 = icmp eq %struct.stu* %13, null
  br i1 %14, label %31, label %24

15:                                               ; preds = %0, %15
  %16 = phi %struct.stu* [ %18, %15 ], [ %2, %0 ]
  %17 = tail call noalias align 16 dereferenceable_or_null(64) i8* @malloc(i64 64) #5
  %18 = bitcast i8* %17 to %struct.stu*
  %19 = getelementptr inbounds %struct.stu, %struct.stu* %18, i64 0, i32 1
  store %struct.stu* %16, %struct.stu** %19, align 8, !tbaa !5
  %20 = getelementptr inbounds %struct.stu, %struct.stu* %18, i64 0, i32 0, i64 0
  %21 = tail call i32 (i8*, ...) bitcast (i32 (...)* @gets to i32 (i8*, ...)*)(i8* %20) #5
  %22 = tail call i32 @strcmp(i8* noundef nonnull dereferenceable(1) %20, i8* noundef nonnull dereferenceable(4) getelementptr inbounds ([4 x i8], [4 x i8]* @.str, i64 0, i64 0)) #6
  %23 = icmp eq i32 %22, 0
  br i1 %23, label %8, label %15, !llvm.loop !10

24:                                               ; preds = %10, %24
  %25 = phi %struct.stu* [ %29, %24 ], [ %13, %10 ]
  %26 = getelementptr inbounds %struct.stu, %struct.stu* %25, i64 0, i32 0, i64 0
  %27 = tail call i32 @puts(i8* nonnull %26)
  %28 = getelementptr inbounds %struct.stu, %struct.stu* %25, i64 0, i32 1
  %29 = load %struct.stu*, %struct.stu** %28, align 8, !tbaa !5
  %30 = icmp eq %struct.stu* %29, null
  br i1 %30, label %31, label %24, !llvm.loop !12

31:                                               ; preds = %24, %10
  ret void
}

; Function Attrs: inaccessiblememonly mustprogress nofree nounwind willreturn
declare noalias noundef align 16 i8* @malloc(i64 noundef) local_unnamed_addr #1

declare i32 @gets(...) local_unnamed_addr #2

; Function Attrs: argmemonly mustprogress nofree nounwind readonly willreturn
declare i32 @strcmp(i8* nocapture, i8* nocapture) local_unnamed_addr #3

; Function Attrs: nofree nounwind
declare noundef i32 @puts(i8* nocapture noundef readonly) local_unnamed_addr #4


!llvm.module.flags = !{!0, !1, !2, !3}
!llvm.ident = !{!4}

!0 = !{i32 1, !"wchar_size", i32 4}
!1 = !{i32 7, !"PIC Level", i32 2}
!2 = !{i32 7, !"PIE Level", i32 2}
!3 = !{i32 7, !"uwtable", i32 1}
!4 = !{!"clang version 13.0.0"}
!5 = !{!6, !9, i64 56}
!6 = !{!"stu", !7, i64 0, !9, i64 56}
!7 = !{!"omnipotent char", !8, i64 0}
!8 = !{!"Simple C/C++ TBAA"}
!9 = !{!"any pointer", !7, i64 0}
!10 = distinct !{!10, !11}
!11 = !{!"llvm.loop.mustprogress"}
!12 = distinct !{!12, !11}
